target datalayout = "e-m:e-p270:32:32-p271:32:32-p272:64:64-i64:64-i128:128-f80:128-n8:16:32:64-S128"
target triple = "x86_64-pc-linux-gnu"

%union.EX_STYPE = type { ptr }
%struct.Exnode_s = type { i32, i32, i32, ptr, %union.anon.1, %union.Exdata_u, i32 }
%union.anon.1 = type { ptr }
%union.Exdata_u = type { %struct.anon.5 }
%struct.anon.5 = type { ptr, ptr, ptr, ptr }
%struct.Expr_s = type { ptr, ptr, [10 x ptr], ptr, ptr, ptr, %struct._dtdisc_s, ptr, ptr, ptr, %struct.agxbuf, %union.EX_STYPE, %struct.Exid_s, [512 x i8], ptr, i32, i32, i32, i32, i64, i32, i32 }
%struct._dtdisc_s = type { i32, i32, i32, ptr, ptr, ptr }
%struct.agxbuf = type { %union.anon }
%union.anon = type { %struct.anon }
%struct.anon = type { ptr, i64, i64, [7 x i8], i8 }
%struct.Exid_s = type { %struct._dtlink_s, i64, i64, i64, i64, i64, ptr, ptr, i64, [32 x i8] }
%struct._dtlink_s = type { ptr, %union.anon.0 }
%union.anon.0 = type { ptr }
%struct.anon.3 = type { ptr, ptr, ptr }
%struct.anon.10 = type { ptr, ptr, ptr }

@.str.83 = private unnamed_addr constant [42 x i8] c"invalid first argument to substr operator\00", align 1
@.str.84 = private unnamed_addr constant [43 x i8] c"invalid second argument to substr operator\00", align 1
@.str.85 = private unnamed_addr constant [42 x i8] c"invalid third argument to substr operator\00", align 1
@.str.86 = private unnamed_addr constant [38 x i8] c"too many arguments to substr operator\00", align 1

; Function Attrs: nounwind uwtable
define ptr @exnewnode(ptr noundef %0, i32 noundef %1, i32 noundef %2, i32 noundef %3, ptr noundef %4, ptr noundef %5) #0 {
  %7 = alloca ptr, align 8
  %8 = alloca i32, align 4
  %9 = alloca i32, align 4
  %10 = alloca i32, align 4
  %11 = alloca ptr, align 8
  %12 = alloca ptr, align 8
  %13 = alloca ptr, align 8
  %14 = alloca %struct.Exnode_s, align 8
  store ptr %0, ptr %7, align 8
  store i32 %1, ptr %8, align 4
  store i32 %2, ptr %9, align 4
  store i32 %3, ptr %10, align 4
  store ptr %4, ptr %11, align 8
  store ptr %5, ptr %12, align 8
  %15 = load ptr, ptr %7, align 8
  %16 = getelementptr inbounds %struct.Expr_s, ptr %15, i32 0, i32 3
  %17 = load ptr, ptr %16, align 8
  %18 = call ptr @vmalloc(ptr noundef %17, i64 noundef 72)
  store ptr %18, ptr %13, align 8
  %19 = load ptr, ptr %13, align 8
  call void @llvm.memset.p0.i64(ptr align 8 %14, i8 0, i64 72, i1 false)
  call void @llvm.memcpy.p0.p0.i64(ptr align 8 %19, ptr align 8 %14, i64 72, i1 false)
  %20 = load i32, ptr %8, align 4
  %21 = load ptr, ptr %13, align 8
  %22 = getelementptr inbounds %struct.Exnode_s, ptr %21, i32 0, i32 1
  store i32 %20, ptr %22, align 4
  %23 = load i32, ptr %10, align 4
  %24 = load ptr, ptr %13, align 8
  %25 = getelementptr inbounds %struct.Exnode_s, ptr %24, i32 0, i32 0
  store i32 %23, ptr %25, align 8
  %26 = load i32, ptr %9, align 4
  %27 = load ptr, ptr %13, align 8
  %28 = getelementptr inbounds %struct.Exnode_s, ptr %27, i32 0, i32 2
  store i32 %26, ptr %28, align 8
  %29 = load ptr, ptr %13, align 8
  %30 = getelementptr inbounds %struct.Exnode_s, ptr %29, i32 0, i32 3
  store ptr null, ptr %30, align 8
  %31 = load ptr, ptr %11, align 8
  %32 = load ptr, ptr %13, align 8
  %33 = getelementptr inbounds %struct.Exnode_s, ptr %32, i32 0, i32 5
  %34 = getelementptr inbounds %struct.anon.3, ptr %33, i32 0, i32 0
  store ptr %31, ptr %34, align 8
  %35 = load ptr, ptr %12, align 8
  %36 = load ptr, ptr %13, align 8
  %37 = getelementptr inbounds %struct.Exnode_s, ptr %36, i32 0, i32 5
  %38 = getelementptr inbounds %struct.anon.3, ptr %37, i32 0, i32 1
  store ptr %35, ptr %38, align 8
  %39 = load ptr, ptr %13, align 8
  ret ptr %39
}

; Function Attrs: nounwind uwtable
define internal ptr @extract(ptr noundef %0, ptr noundef %1, i32 noundef %2) #0 {
  %4 = alloca ptr, align 8
  %5 = alloca ptr, align 8
  %6 = alloca ptr, align 8
  %7 = alloca i32, align 4
  %8 = alloca ptr, align 8
  %9 = alloca ptr, align 8
  store ptr %0, ptr %5, align 8
  store ptr %1, ptr %6, align 8
  store i32 %2, ptr %7, align 4
  %10 = load ptr, ptr %6, align 8
  %11 = load ptr, ptr %10, align 8
  store ptr %11, ptr %8, align 8
  %12 = load ptr, ptr %8, align 8
  %13 = icmp ne ptr %12, null
  br i1 %13, label %14, label %23

14:                                               ; preds = %3
  %15 = load i32, ptr %7, align 4
  %16 = load ptr, ptr %8, align 8
  %17 = getelementptr inbounds %struct.Exnode_s, ptr %16, i32 0, i32 5
  %18 = getelementptr inbounds %struct.anon.3, ptr %17, i32 0, i32 0
  %19 = load ptr, ptr %18, align 8
  %20 = getelementptr inbounds %struct.Exnode_s, ptr %19, i32 0, i32 0
  %21 = load i32, ptr %20, align 8
  %22 = icmp ne i32 %15, %21
  br i1 %22, label %23, label %24

23:                                               ; preds = %14, %3
  store ptr null, ptr %4, align 8
  br label %43

24:                                               ; preds = %14
  %25 = load ptr, ptr %8, align 8
  %26 = getelementptr inbounds %struct.Exnode_s, ptr %25, i32 0, i32 5
  %27 = getelementptr inbounds %struct.anon.3, ptr %26, i32 0, i32 1
  %28 = load ptr, ptr %27, align 8
  %29 = load ptr, ptr %6, align 8
  store ptr %28, ptr %29, align 8
  %30 = load ptr, ptr %8, align 8
  %31 = getelementptr inbounds %struct.Exnode_s, ptr %30, i32 0, i32 5
  %32 = getelementptr inbounds %struct.anon.3, ptr %31, i32 0, i32 0
  %33 = load ptr, ptr %32, align 8
  store ptr %33, ptr %9, align 8
  %34 = load ptr, ptr %8, align 8
  %35 = getelementptr inbounds %struct.Exnode_s, ptr %34, i32 0, i32 5
  %36 = getelementptr inbounds %struct.anon.3, ptr %35, i32 0, i32 1
  store ptr null, ptr %36, align 8
  %37 = load ptr, ptr %8, align 8
  %38 = getelementptr inbounds %struct.Exnode_s, ptr %37, i32 0, i32 5
  %39 = getelementptr inbounds %struct.anon.3, ptr %38, i32 0, i32 0
  store ptr null, ptr %39, align 8
  %40 = load ptr, ptr %5, align 8
  %41 = load ptr, ptr %8, align 8
  call void @exfreenode(ptr noundef %40, ptr noundef %41)
  %42 = load ptr, ptr %9, align 8
  store ptr %42, ptr %4, align 8
  br label %43

43:                                               ; preds = %24, %23
  %44 = load ptr, ptr %4, align 8
  ret ptr %44
}

; Function Attrs: nounwind uwtable
define internal ptr @exnewsubstr(ptr noundef %0, ptr noundef %1) #0 {
  %3 = alloca ptr, align 8
  %4 = alloca ptr, align 8
  %5 = alloca ptr, align 8
  %6 = alloca ptr, align 8
  %7 = alloca ptr, align 8
  %8 = alloca ptr, align 8
  store ptr %0, ptr %3, align 8
  store ptr %1, ptr %4, align 8
  store ptr null, ptr %8, align 8
  %9 = load ptr, ptr %3, align 8
  %10 = call ptr @extract(ptr noundef %9, ptr noundef %4, i32 noundef 263)
  store ptr %10, ptr %5, align 8
  %11 = load ptr, ptr %5, align 8
  %12 = icmp ne ptr %11, null
  br i1 %12, label %14, label %13

13:                                               ; preds = %2
  call void (ptr, ...) @exerror(ptr noundef @.str.83)
  br label %14

14:                                               ; preds = %13, %2
  %15 = load ptr, ptr %3, align 8
  %16 = call ptr @extract(ptr noundef %15, ptr noundef %4, i32 noundef 259)
  store ptr %16, ptr %6, align 8
  %17 = load ptr, ptr %6, align 8
  %18 = icmp ne ptr %17, null
  br i1 %18, label %20, label %19

19:                                               ; preds = %14
  call void (ptr, ...) @exerror(ptr noundef @.str.84)
  br label %20

20:                                               ; preds = %19, %14
  %21 = load ptr, ptr %4, align 8
  %22 = icmp ne ptr %21, null
  br i1 %22, label %23, label %30

23:                                               ; preds = %20
  %24 = load ptr, ptr %3, align 8
  %25 = call ptr @extract(ptr noundef %24, ptr noundef %4, i32 noundef 259)
  store ptr %25, ptr %7, align 8
  %26 = load ptr, ptr %7, align 8
  %27 = icmp ne ptr %26, null
  br i1 %27, label %29, label %28

28:                                               ; preds = %23
  call void (ptr, ...) @exerror(ptr noundef @.str.85)
  br label %29

29:                                               ; preds = %28, %23
  br label %31

30:                                               ; preds = %20
  store ptr null, ptr %7, align 8
  br label %31

31:                                               ; preds = %30, %29
  %32 = load ptr, ptr %4, align 8
  %33 = icmp ne ptr %32, null
  br i1 %33, label %34, label %35

34:                                               ; preds = %31
  call void (ptr, ...) @exerror(ptr noundef @.str.86)
  br label %35

35:                                               ; preds = %34, %31
  %36 = load ptr, ptr %3, align 8
  %37 = call ptr @exnewnode(ptr noundef %36, i32 noundef 303, i32 noundef 0, i32 noundef 263, ptr noundef null, ptr noundef null)
  store ptr %37, ptr %8, align 8
  %38 = load ptr, ptr %5, align 8
  %39 = load ptr, ptr %8, align 8
  %40 = getelementptr inbounds %struct.Exnode_s, ptr %39, i32 0, i32 5
  %41 = getelementptr inbounds %struct.anon.10, ptr %40, i32 0, i32 0
  store ptr %38, ptr %41, align 8
  %42 = load ptr, ptr %6, align 8
  %43 = load ptr, ptr %8, align 8
  %44 = getelementptr inbounds %struct.Exnode_s, ptr %43, i32 0, i32 5
  %45 = getelementptr inbounds %struct.anon.10, ptr %44, i32 0, i32 1
  store ptr %42, ptr %45, align 8
  %46 = load ptr, ptr %7, align 8
  %47 = load ptr, ptr %8, align 8
  %48 = getelementptr inbounds %struct.Exnode_s, ptr %47, i32 0, i32 5
  %49 = getelementptr inbounds %struct.anon.10, ptr %48, i32 0, i32 2
  store ptr %46, ptr %49, align 8
  %50 = load ptr, ptr %8, align 8
  ret ptr %50
}