; Function Attrs: nounwind uwtable
define internal fastcc noundef ptr @exnewsubstr(ptr noundef %0, ptr noundef %1) unnamed_addr #0 {
  %.not.i = icmp eq ptr %1, null
  br i1 %.not.i, label %9, label %3

3:                                                ; preds = %2
  %4 = getelementptr inbounds nuw i8, ptr %1, i64 32
  %5 = load ptr, ptr %4, align 8
  %6 = load i32, ptr %5, align 8
  %.not13.i = icmp eq i32 %6, 263
  br i1 %.not13.i, label %extract.exit, label %9

extract.exit:                                     ; preds = %3
  %7 = getelementptr inbounds nuw i8, ptr %1, i64 40
  %8 = load ptr, ptr %7, align 8
  tail call void @llvm.memset.p0.i64(ptr noundef nonnull align 8 dereferenceable(16) %4, i8 0, i64 16, i1 false)
  tail call void @exfreenode(ptr noundef %0, ptr noundef nonnull %1)
  br label %10

9:                                                ; preds = %3, %2
  tail call void (ptr, ...) @exerror(ptr noundef nonnull @.str.83) #22
  br label %10

10:                                               ; preds = %extract.exit, %9
  %.0.i37 = phi ptr [ null, %9 ], [ %5, %extract.exit ]
  %.135 = phi ptr [ %1, %9 ], [ %8, %extract.exit ]
  %.not.i19 = icmp eq ptr %.135, null
  br i1 %.not.i19, label %17, label %11

11:                                               ; preds = %10
  %12 = getelementptr inbounds nuw i8, ptr %.135, i64 32
  %13 = load ptr, ptr %12, align 8
  %14 = load i32, ptr %13, align 8
  %.not13.i20 = icmp eq i32 %14, 259
  br i1 %.not13.i20, label %extract.exit22, label %17

extract.exit22:                                   ; preds = %11
  %15 = getelementptr inbounds nuw i8, ptr %.135, i64 40
  %16 = load ptr, ptr %15, align 8
  tail call void @llvm.memset.p0.i64(ptr noundef nonnull align 8 dereferenceable(16) %12, i8 0, i64 16, i1 false)
  tail call void @exfreenode(ptr noundef %0, ptr noundef nonnull %.135)
  br label %18

17:                                               ; preds = %11, %10
  tail call void (ptr, ...) @exerror(ptr noundef nonnull @.str.84) #22
  br label %18

18:                                               ; preds = %extract.exit22, %17
  %.0.i2144 = phi ptr [ null, %17 ], [ %13, %extract.exit22 ]
  %.242 = phi ptr [ %.135, %17 ], [ %16, %extract.exit22 ]
  %.not16 = icmp eq ptr %.242, null
  br i1 %.not16, label %.thread, label %19

19:                                               ; preds = %18
  %20 = getelementptr inbounds nuw i8, ptr %.242, i64 32
  %21 = load ptr, ptr %20, align 8
  %22 = load i32, ptr %21, align 8
  %.not13.i24 = icmp eq i32 %22, 259
  br i1 %.not13.i24, label %23, label %.thread54

.thread54:                                        ; preds = %19
  tail call void (ptr, ...) @exerror(ptr noundef nonnull @.str.85) #22
  br label %26

23:                                               ; preds = %19
  %24 = getelementptr inbounds nuw i8, ptr %.242, i64 40
  %25 = load ptr, ptr %24, align 8
  tail call void @llvm.memset.p0.i64(ptr noundef nonnull align 8 dereferenceable(16) %20, i8 0, i64 16, i1 false)
  tail call void @exfreenode(ptr noundef %0, ptr noundef nonnull %.242)
  %.not18 = icmp eq ptr %25, null
  br i1 %.not18, label %.thread, label %26

26:                                               ; preds = %.thread54, %23
  %.058 = phi ptr [ null, %.thread54 ], [ %21, %23 ]
  tail call void (ptr, ...) @exerror(ptr noundef nonnull @.str.86) #22
  br label %.thread

.thread:                                          ; preds = %18, %26, %23
  %.053 = phi ptr [ %.058, %26 ], [ %21, %23 ], [ null, %18 ]
  %27 = getelementptr inbounds nuw i8, ptr %0, i64 96
  %28 = load ptr, ptr %27, align 8
  %29 = tail call ptr @vmalloc(ptr noundef %28, i64 noundef 72) #22
  %30 = getelementptr inbounds nuw i8, ptr %29, i64 8
  tail call void @llvm.memset.p0.i64(ptr noundef nonnull align 8 dereferenceable(64) %30, i8 0, i64 64, i1 false)
  %31 = getelementptr inbounds nuw i8, ptr %29, i64 4
  store i32 303, ptr %31, align 4
  store i32 263, ptr %29, align 8
  %32 = getelementptr inbounds nuw i8, ptr %29, i64 32
  %33 = getelementptr inbounds nuw i8, ptr %29, i64 40
  store ptr %.0.i37, ptr %32, align 8
  store ptr %.0.i2144, ptr %33, align 8
  %34 = getelementptr inbounds nuw i8, ptr %29, i64 48
  store ptr %.053, ptr %34, align 8
  ret ptr %29
}